target datalayout = "e-m:e-p270:32:32-p271:32:32-p272:64:64-i64:64-i128:128-f80:128-n8:16:32:64-S128"
target triple = "x86_64-pc-linux-gnu"

%struct.pkcs7_st = type { ptr, i64, i32, i32, ptr, %union.anon.1, %struct.PKCS7_CTX_st }
%union.anon.1 = type { ptr }
%struct.PKCS7_CTX_st = type { ptr, ptr }

@.str = private unnamed_addr constant [35 x i8] c"../openssl/crypto/pkcs12/p12_add.c\00", align 1
@__func__.PKCS12_pack_p7data = private unnamed_addr constant [19 x i8] c"PKCS12_pack_p7data\00", align 1

; Function Attrs: nounwind uwtable
define ptr @PKCS12_pack_p7data(ptr noundef %0) #0 {
  %2 = alloca ptr, align 8
  %3 = alloca ptr, align 8
  %4 = alloca ptr, align 8
  %5 = alloca i32, align 4
  store ptr %0, ptr %3, align 8, !tbaa !22
  call void @llvm.lifetime.start.p0(i64 8, ptr %4) #4
  %6 = call ptr @PKCS7_new()
  store ptr %6, ptr %4, align 8, !tbaa !24
  %7 = icmp eq ptr %6, null
  br i1 %7, label %8, label %9

8:                                                ; preds = %1
  call void @ERR_new()
  call void @ERR_set_debug(ptr noundef @.str, i32 noundef 54, ptr noundef @__func__.PKCS12_pack_p7data)
  call void (i32, i32, ptr, ...) @ERR_set_error(i32 noundef 35, i32 noundef 524301, ptr noundef null)
  store ptr null, ptr %2, align 8
  store i32 1, ptr %5, align 4
  br label %30

9:                                                ; preds = %1
  %10 = call ptr @OBJ_nid2obj(i32 noundef 21)
  %11 = load ptr, ptr %4, align 8, !tbaa !24
  %12 = getelementptr inbounds nuw %struct.pkcs7_st, ptr %11, i32 0, i32 4
  store ptr %10, ptr %12, align 8, !tbaa !26
  %13 = call ptr @ASN1_OCTET_STRING_new()
  %14 = load ptr, ptr %4, align 8, !tbaa !24
  %15 = getelementptr inbounds nuw %struct.pkcs7_st, ptr %14, i32 0, i32 5
  store ptr %13, ptr %15, align 8, !tbaa !18
  %16 = icmp eq ptr %13, null
  br i1 %16, label %17, label %18

17:                                               ; preds = %9
  call void @ERR_new()
  call void @ERR_set_debug(ptr noundef @.str, i32 noundef 59, ptr noundef @__func__.PKCS12_pack_p7data)
  call void (i32, i32, ptr, ...) @ERR_set_error(i32 noundef 35, i32 noundef 524301, ptr noundef null)
  br label %28

18:                                               ; preds = %9
  %19 = load ptr, ptr %3, align 8, !tbaa !22
  %20 = call ptr @PKCS12_SAFEBAGS_it()
  %21 = load ptr, ptr %4, align 8, !tbaa !24
  %22 = getelementptr inbounds nuw %struct.pkcs7_st, ptr %21, i32 0, i32 5
  %23 = call ptr @ASN1_item_pack(ptr noundef %19, ptr noundef %20, ptr noundef %22)
  %24 = icmp ne ptr %23, null
  br i1 %24, label %26, label %25

25:                                               ; preds = %18
  call void @ERR_new()
  call void @ERR_set_debug(ptr noundef @.str, i32 noundef 64, ptr noundef @__func__.PKCS12_pack_p7data)
  call void (i32, i32, ptr, ...) @ERR_set_error(i32 noundef 35, i32 noundef 100, ptr noundef null)
  br label %28

26:                                               ; preds = %18
  %27 = load ptr, ptr %4, align 8, !tbaa !24
  store ptr %27, ptr %2, align 8
  store i32 1, ptr %5, align 4
  br label %30

28:                                               ; preds = %25, %17
  %29 = load ptr, ptr %4, align 8, !tbaa !24
  call void @PKCS7_free(ptr noundef %29)
  store ptr null, ptr %2, align 8
  store i32 1, ptr %5, align 4
  br label %30

30:                                               ; preds = %28, %26, %8
  call void @llvm.lifetime.end.p0(i64 8, ptr %4) #4
  %31 = load ptr, ptr %2, align 8
  ret ptr %31
}