; Function Attrs: nounwind uwtable
define ptr @PKCS12_pack_p7data(ptr noundef %0) local_unnamed_addr #0 {
  %2 = tail call ptr @PKCS7_new() #2
  %3 = icmp eq ptr %2, null
  br i1 %3, label %4, label %5

4:                                                ; preds = %1
  tail call void @ERR_new() #2
  tail call void @ERR_set_debug(ptr noundef nonnull @.str, i32 noundef 54, ptr noundef nonnull @__func__.PKCS12_pack_p7data) #2
  tail call void (i32, i32, ptr, ...) @ERR_set_error(i32 noundef 35, i32 noundef 524301, ptr noundef null) #2
  br label %15

5:                                                ; preds = %1
  %6 = tail call ptr @OBJ_nid2obj(i32 noundef 21) #2
  %7 = getelementptr inbounds nuw i8, ptr %2, i64 24
  store ptr %6, ptr %7, align 8, !tbaa !13
  %8 = tail call ptr @ASN1_OCTET_STRING_new() #2
  %9 = getelementptr inbounds nuw i8, ptr %2, i64 32
  store ptr %8, ptr %9, align 8, !tbaa !9
  %10 = icmp eq ptr %8, null
  br i1 %10, label %14, label %11

11:                                               ; preds = %5
  %12 = tail call ptr @PKCS12_SAFEBAGS_it() #2
  %13 = tail call ptr @ASN1_item_pack(ptr noundef %0, ptr noundef %12, ptr noundef nonnull %9) #2
  %.not = icmp eq ptr %13, null
  br i1 %.not, label %14, label %15

14:                                               ; preds = %11, %5
  %.sink8 = phi i32 [ 59, %5 ], [ 64, %11 ]
  %.sink = phi i32 [ 524301, %5 ], [ 100, %11 ]
  tail call void @ERR_new() #2
  tail call void @ERR_set_debug(ptr noundef nonnull @.str, i32 noundef %.sink8, ptr noundef nonnull @__func__.PKCS12_pack_p7data) #2
  tail call void (i32, i32, ptr, ...) @ERR_set_error(i32 noundef 35, i32 noundef %.sink, ptr noundef null) #2
  tail call void @PKCS7_free(ptr noundef nonnull %2) #2
  br label %15

15:                                               ; preds = %11, %14, %4
  %.0 = phi ptr [ null, %4 ], [ null, %14 ], [ %2, %11 ]
  ret ptr %.0
}